(dp1
S'authorid'
p2
(dp3
S'type'
p4
S'reference auth_user'
p5
sS'sortable'
p6
I3
sS'sql'
p7
S'INTEGER REFERENCES auth_user(id) ON DELETE CASCADE'
p8
ssS'imageid'
p9
(dp10
g4
S'reference image'
p11
sg6
I2
sg7
S'INTEGER REFERENCES image(id) ON DELETE CASCADE'
p12
ssS'number'
p13
(dp14
S'sortable'
p15
I4
sS'type'
p16
S'integer'
p17
sS'sql'
p18
S'INTEGER'
p19
ssS'id'
p20
(dp21
g4
S'id'
p22
sg6
I1
sg7
S'INTEGER PRIMARY KEY AUTOINCREMENT'
p23
ss.